ccopy_reg
_reconstructor
p0
(csklearn.linear_model.logistic
LogisticRegression
p1
c__builtin__
object
p2
Ntp3
Rp4
(dp5
S'warm_start'
p6
I00
sS'C'
p7
I10
sS'n_jobs'
p8
I2
sS'verbose'
p9
I0
sS'fit_intercept'
p10
I01
sS'max_iter'
p11
I100
sS'intercept_scaling'
p12
I1
sS'penalty'
p13
Vl1
p14
sS'multi_class'
p15
S'ovr'
p16
sS'random_state'
p17
NsS'_sklearn_version'
p18
S'0.19.0'
p19
sS'dual'
p20
I00
sS'tol'
p21
V.0001
p22
sS'solver'
p23
S'liblinear'
p24
sS'class_weight'
p25
Nsb.